; ModuleID = 'bench/libigl/original/gl_type_size.ll'
source_filename = "bench/libigl/original/gl_type_size.ll"
target datalayout = "e-m:e-p270:32:32-p271:32:32-p272:64:64-i64:64-i128:128-f80:128-n8:16:32:64-S128"
target triple = "x86_64-pc-linux-gnu"

@switch.table._ZN3igl6opengl12gl_type_sizeEj = private unnamed_addr constant [7 x i32] [i32 4, i32 -1, i32 4, i32 -1, i32 -1, i32 -1, i32 8], align 4

; Function Attrs: mustprogress nofree norecurse nosync nounwind willreturn memory(none) uwtable
define dso_local noundef range(i32 -1, 9) i32 @_ZN3igl6opengl12gl_type_sizeEj(i32 noundef %0) local_unnamed_addr #0 {
  %switch.tableidx = add i32 %0, -5124
  %2 = icmp ult i32 %switch.tableidx, 7
  br i1 %2, label %switch.lookup, label %4

switch.lookup:                                    ; preds = %1
  %3 = zext nneg i32 %switch.tableidx to i64
  %switch.gep = getelementptr inbounds nuw [7 x i32], ptr @switch.table._ZN3igl6opengl12gl_type_sizeEj, i64 0, i64 %3
  %switch.load = load i32, ptr %switch.gep, align 4
  br label %4

4:                                                ; preds = %1, %switch.lookup
  %.0 = phi i32 [ %switch.load, %switch.lookup ], [ -1, %1 ]
  ret i32 %.0
}


!llvm.module.flags = !{!0, !1, !2, !3}

!0 = !{i32 1, !"wchar_size", i32 4}
!1 = !{i32 8, !"PIC Level", i32 2}
!2 = !{i32 7, !"PIE Level", i32 2}
!3 = !{i32 7, !"uwtable", i32 2}
